ccopy_reg
_reconstructor
p1
(cpandas.core.frame
DataFrame
p2
c__builtin__
object
p3
NtRp4
(dp5
S'_metadata'
p6
(lp7
sS'_typ'
p8
S'dataframe'
p9
sS'_data'
p10
g1
(cpandas.core.internals
BlockManager
p11
g3
NtRp12
((lp13
cpandas.indexes.base
_new_Index
p14
(cpandas.indexes.base
Index
p15
(dp16
S'data'
p17
cnumpy.core.multiarray
_reconstruct
p18
(cnumpy
ndarray
p19
(I0
tS'b'
tRp20
(I1
(I3
tcnumpy
dtype
p21
(S'O8'
I0
I1
tRp22
(I3
S'|'
NNNI-1
I-1
I63
tbI00
(lp23
S'name'
p24
aS'phone_num'
p25
aS'no'
p26
atbsg24
NstRp27
ag14
(cpandas.indexes.range
RangeIndex
p28
(dp29
S'start'
p30
I0
sS'step'
p31
I1
sS'stop'
p32
I5
sg24
NstRp33
a(lp34
g18
(g19
(I0
tS'b'
tRp35
(I1
(I1
I5
tg21
(S'i8'
I0
I1
tRp36
(I3
S'<'
NNNI-1
I-1
I0
tbI00
S'\xc6\xf6h\xb6\x03\x00\x00\x00p{\xc7&\x03\x00\x00\x00\xba\xce\x07\xb3\x03\x00\x00\x00\x13\xb9\xaa\x8b\x03\x00\x00\x00\x9d/\xb9,\x03\x00\x00\x00'
tbag18
(g19
(I0
tS'b'
tRp37
(I1
(I2
I5
tg22
I00
(lp38
V\u5b5f\u745e
p39
aV\u5434\u8d24
p40
aV\u674e\u4fa0
p41
aV\u5415\u598d
p42
aV\u9648\u6167
p43
aVDD0656420030
p44
aVDD0656420039
p45
aVDD0656422150
p46
aVDD1872357857
p47
aVDD0656415895
p48
atba(lp49
g14
(g15
(dp50
g17
g18
(g19
(I0
tS'b'
tRp51
(I1
(I1
tg22
I00
(lp52
g25
atbsg24
NstRp53
ag14
(g15
(dp54
g17
g18
(g19
(I0
tS'b'
tRp55
(I1
(I2
tg22
I00
(lp56
g24
ag26
atbsg24
NstRp57
a(dp58
S'0.14.1'
p59
(dp60
S'axes'
p61
g13
sS'blocks'
p62
(lp63
(dp64
S'mgr_locs'
p65
c__builtin__
slice
p66
(I1
I2
I1
tRp67
sS'values'
p68
g35
sa(dp69
g65
g66
(I0
I4
I2
tRp70
sg68
g37
sasstbsb.